; Function Attrs: nounwind uwtable
define ptr @H5FL_blk_realloc(ptr noundef %0, ptr noundef %1, i64 noundef %2) local_unnamed_addr #0 {
  %4 = load i8, ptr @H5FL_init_g, align 1, !tbaa !3, !range !7, !noundef !8
  %5 = trunc nuw i8 %4 to i1
  %6 = load i8, ptr @H5_libterm_g, align 1, !range !7
  %7 = trunc nuw i8 %6 to i1
  %8 = select i1 %5, i1 true, i1 %7
  br i1 %8, label %9, label %.thread, !prof !15

.thread:                                          ; preds = %3
  store i8 1, ptr @H5FL_init_g, align 1, !tbaa !3
  br label %12

9:                                                ; preds = %3
  %10 = xor i1 %7, true
  %11 = select i1 %5, i1 true, i1 %10
  br i1 %11, label %12, label %27, !prof !87

12:                                               ; preds = %.thread, %9
  %.not = icmp eq ptr %1, null
  br i1 %.not, label %25, label %13

13:                                               ; preds = %12
  %14 = getelementptr inbounds i8, ptr %1, i64 -8
  %15 = load i64, ptr %14, align 8, !tbaa !96
  %.not29 = icmp eq i64 %2, %15
  br i1 %.not29, label %27, label %16

16:                                               ; preds = %13
  %17 = tail call noalias ptr @H5FL_blk_malloc(ptr noundef %0, i64 noundef %2)
  %.not30 = icmp eq ptr %17, null
  br i1 %.not30, label %18, label %22

18:                                               ; preds = %16
  %19 = load i64, ptr @H5E_RESOURCE_g, align 8, !tbaa !86
  %20 = load i64, ptr @H5E_NOSPACE_g, align 8, !tbaa !86
  %21 = tail call i32 (ptr, ptr, i32, i64, i64, ptr, ...) @H5E_printf_stack(ptr noundef nonnull @.str.2, ptr noundef nonnull @__func__.H5FL_blk_realloc, i32 noundef 937, i64 noundef %19, i64 noundef %20, ptr noundef nonnull @.str.9) #10
  br label %27

22:                                               ; preds = %16
  %23 = load i64, ptr %14, align 8, !tbaa !96
  %. = tail call i64 @llvm.umin.i64(i64 %2, i64 %23)
  tail call void @llvm.memcpy.p0.p0.i64(ptr nonnull align 1 %17, ptr nonnull align 1 %1, i64 %., i1 false)
  %24 = tail call ptr @H5FL_blk_free(ptr noundef %0, ptr noundef nonnull %1)
  br label %27

25:                                               ; preds = %12
  %26 = tail call noalias ptr @H5FL_blk_malloc(ptr noundef %0, i64 noundef %2)
  br label %27

27:                                               ; preds = %18, %22, %13, %9, %25
  %.022 = phi ptr [ %26, %25 ], [ null, %9 ], [ %1, %13 ], [ null, %18 ], [ %17, %22 ]
  ret ptr %.022
}